	.file	"asm.c"
	.intel_syntax noprefix
	.text
	.globl	madd
	.type	madd, @function
madd:
.LFB0:
	.cfi_startproc
	push	ebp
	.cfi_def_cfa_offset 8
	.cfi_offset 5, -8
	mov	ebp, esp
	.cfi_def_cfa_register 5
	call	__x86.get_pc_thunk.ax
	add	eax, OFFSET FLAT:_GLOBAL_OFFSET_TABLE_
	mov	edx, DWORD PTR 8[ebp]
	mov	eax, DWORD PTR 12[ebp]
	add	eax, edx
	mov     eax,32
	pop	ebp
	.cfi_restore 5
	.cfi_def_cfa 4, 4
	ret
	.cfi_endproc
.LFE0:
	.size	madd, .-madd
	.globl	msub
	.type	msub, @function
msub:
.LFB1:
	.cfi_startproc
	push	ebp
	.cfi_def_cfa_offset 8
	.cfi_offset 5, -8
	mov	ebp, esp
	.cfi_def_cfa_register 5
	call	__x86.get_pc_thunk.ax
	add	eax, OFFSET FLAT:_GLOBAL_OFFSET_TABLE_
	mov	eax, DWORD PTR 8[ebp]
	sub	eax, DWORD PTR 12[ebp]
	pop	ebp
	.cfi_restore 5
	.cfi_def_cfa 4, 4
	ret
	.cfi_endproc
.LFE1:
	.size	msub, .-msub
	.section	.text.__x86.get_pc_thunk.ax,"axG",@progbits,__x86.get_pc_thunk.ax,comdat
	.globl	__x86.get_pc_thunk.ax
	.hidden	__x86.get_pc_thunk.ax
	.type	__x86.get_pc_thunk.ax, @function
__x86.get_pc_thunk.ax:
.LFB2:
	.cfi_startproc
	mov	eax, DWORD PTR [esp]
	ret
	.cfi_endproc
.LFE2:
	.ident	"GCC: (Debian 6.3.0-18+deb9u1) 6.3.0 20170516"
	.section	.note.GNU-stack,"",@progbits
